(dp0
S'interp_type'
p1
S'linear'
p2
sS'align_percent'
p3
F0.95
sS'max_sample_idx'
p4
I125
sS'doMaxInterp'
p5
I01
sS'smooth_type'
p6
S'gen_gaus'
p7
sS'traprc_min'
p8
I150
sS'avg_imp_guess'
p9
F-0.408716
sS'imp_grad_guess'
p10
F0.1
sS'E_a'
p11
I500
sS'siggen_conf_file'
p12
S'conf/P42574B.conf'
p13
sS'field_file_name'
p14
S'dat/P42574B_bull_fields.npz'
p15
sS'wf_file_name'
p16
S'dat/P42574B_8_slow.npz'
p17
sS'E_hi'
p18
I1000
sS'energy_guess'
p19
I6430
sS'beta_lims'
p20
(lp21
F0.1
aI1
asS'numSamples'
p22
I250
sS'wf_idxs'
p23
(lp24
I0
aI2
aI4
aI6
asS'alignType'
p25
S'timepoint'
p26
sS'directory'
p27
S'8wf_P42574B'
p28
sS'num_wf_params'
p29
I6
sS'fallPercentage'
p30
F0.97
sS'E_lo'
p31
I250
s.